; Function Attrs: mustprogress uwtable
define void @cvMulTransposed(ptr noundef %0, ptr noundef %1, i32 noundef %2, ptr noundef %3, double noundef %4) local_unnamed_addr #3 personality ptr @__gxx_personality_v0 {
  %6 = alloca %"class.cv::Mat", align 8
  %7 = alloca %"class.cv::Mat", align 8
  %8 = alloca %"class.cv::Mat", align 8
  %9 = alloca %"class.cv::Mat", align 8
  %10 = alloca %"class.cv::Mat", align 8
  %11 = alloca %"class.cv::_InputArray", align 8
  %12 = alloca %"class.cv::_OutputArray", align 8
  %13 = alloca %"class.cv::_InputArray", align 8
  %14 = alloca %"class.cv::_OutputArray", align 8
  call void @llvm.lifetime.start.p0(i64 96, ptr nonnull %6) #27
  call void @_ZN2cv10cvarrToMatEPKvbbiPNS_10AutoBufferIdLm136EEE(ptr dead_on_unwind nonnull writable sret(%"class.cv::Mat") align 8 %6, ptr noundef %0, i1 noundef zeroext false, i1 noundef zeroext true, i32 noundef 0, ptr noundef null)
  call void @llvm.lifetime.start.p0(i64 96, ptr nonnull %7) #27
  invoke void @_ZN2cv10cvarrToMatEPKvbbiPNS_10AutoBufferIdLm136EEE(ptr dead_on_unwind nonnull writable sret(%"class.cv::Mat") align 8 %7, ptr noundef %1, i1 noundef zeroext false, i1 noundef zeroext true, i32 noundef 0, ptr noundef null)
          to label %15 unwind label %21

15:                                               ; preds = %5
  call void @llvm.lifetime.start.p0(i64 96, ptr nonnull %8) #27
  invoke void @_ZN2cv3MatC1ERKS0_(ptr noundef nonnull align 8 dereferenceable(96) %8, ptr noundef nonnull align 8 dereferenceable(96) %7)
          to label %16 unwind label %23

16:                                               ; preds = %15
  call void @llvm.lifetime.start.p0(i64 96, ptr nonnull %9) #27
  call void @_ZN2cv3MatC1Ev(ptr noundef nonnull align 8 dereferenceable(96) %9) #27
  %.not = icmp eq ptr %3, null
  br i1 %.not, label %30, label %17

17:                                               ; preds = %16
  call void @llvm.lifetime.start.p0(i64 96, ptr nonnull %10) #27
  invoke void @_ZN2cv10cvarrToMatEPKvbbiPNS_10AutoBufferIdLm136EEE(ptr dead_on_unwind nonnull writable sret(%"class.cv::Mat") align 8 %10, ptr noundef nonnull %3, i1 noundef zeroext false, i1 noundef zeroext true, i32 noundef 0, ptr noundef null)
          to label %18 unwind label %25

18:                                               ; preds = %17
  %19 = invoke noundef nonnull align 8 dereferenceable(96) ptr @_ZN2cv3MataSEOS0_(ptr noundef nonnull align 8 dereferenceable(96) %9, ptr noundef nonnull align 8 dereferenceable(96) %10)
          to label %20 unwind label %27

20:                                               ; preds = %18
  call void @_ZN2cv3MatD1Ev(ptr noundef nonnull align 8 dereferenceable(96) %10) #27
  call void @llvm.lifetime.end.p0(i64 96, ptr nonnull %10) #27
  br label %30

21:                                               ; preds = %5
  %22 = landingpad { ptr, i32 }
          cleanup
  br label %60

23:                                               ; preds = %15
  %24 = landingpad { ptr, i32 }
          cleanup
  br label %59

25:                                               ; preds = %17
  %26 = landingpad { ptr, i32 }
          cleanup
  br label %29

27:                                               ; preds = %18
  %28 = landingpad { ptr, i32 }
          cleanup
  call void @_ZN2cv3MatD1Ev(ptr noundef nonnull align 8 dereferenceable(96) %10) #27
  br label %29

29:                                               ; preds = %27, %25
  %.pn = phi { ptr, i32 } [ %28, %27 ], [ %26, %25 ]
  call void @llvm.lifetime.end.p0(i64 96, ptr nonnull %10) #27
  br label %58

30:                                               ; preds = %16, %20
  call void @llvm.lifetime.start.p0(i64 24, ptr nonnull %11) #27
  %31 = getelementptr inbounds nuw i8, ptr %11, i64 16
  store i32 0, ptr %31, align 8, !tbaa !388
  %32 = getelementptr inbounds nuw i8, ptr %11, i64 20
  store i32 0, ptr %32, align 4, !tbaa !389
  store i32 16842752, ptr %11, align 8, !tbaa !390
  %33 = getelementptr inbounds nuw i8, ptr %11, i64 8
  store ptr %6, ptr %33, align 8, !tbaa !376
  call void @llvm.lifetime.start.p0(i64 24, ptr nonnull %12) #27
  %34 = getelementptr inbounds nuw i8, ptr %12, i64 8
  %35 = getelementptr inbounds nuw i8, ptr %12, i64 16
  store i64 0, ptr %35, align 8
  store i32 33619968, ptr %12, align 8, !tbaa !390
  store ptr %8, ptr %34, align 8, !tbaa !376
  call void @llvm.lifetime.start.p0(i64 24, ptr nonnull %13) #27
  %36 = getelementptr inbounds nuw i8, ptr %13, i64 16
  store i32 0, ptr %36, align 8, !tbaa !388
  %37 = getelementptr inbounds nuw i8, ptr %13, i64 20
  store i32 0, ptr %37, align 4, !tbaa !389
  store i32 16842752, ptr %13, align 8, !tbaa !390
  %38 = getelementptr inbounds nuw i8, ptr %13, i64 8
  store ptr %9, ptr %38, align 8, !tbaa !376
  %39 = icmp ne i32 %2, 0
  %40 = load i32, ptr %8, align 8, !tbaa !129
  %41 = and i32 %40, 4095
  invoke void @_ZN2cv13mulTransposedERKNS_11_InputArrayERKNS_12_OutputArrayEbS2_di(ptr noundef nonnull align 8 dereferenceable(24) %11, ptr noundef nonnull align 8 dereferenceable(24) %12, i1 noundef zeroext %39, ptr noundef nonnull align 8 dereferenceable(24) %13, double noundef %4, i32 noundef %41)
          to label %42 unwind label %53

42:                                               ; preds = %30
  call void @llvm.lifetime.end.p0(i64 24, ptr nonnull %13) #27
  call void @llvm.lifetime.end.p0(i64 24, ptr nonnull %12) #27
  call void @llvm.lifetime.end.p0(i64 24, ptr nonnull %11) #27
  %43 = getelementptr inbounds nuw i8, ptr %8, i64 16
  %44 = load ptr, ptr %43, align 8, !tbaa !136
  %45 = getelementptr inbounds nuw i8, ptr %7, i64 16
  %46 = load ptr, ptr %45, align 8, !tbaa !136
  %.not21 = icmp eq ptr %44, %46
  br i1 %.not21, label %57, label %47

47:                                               ; preds = %42
  call void @llvm.lifetime.start.p0(i64 24, ptr nonnull %14) #27
  %48 = getelementptr inbounds nuw i8, ptr %14, i64 8
  %49 = getelementptr inbounds nuw i8, ptr %14, i64 16
  store i64 0, ptr %49, align 8
  store i32 33619968, ptr %14, align 8, !tbaa !390
  store ptr %7, ptr %48, align 8, !tbaa !376
  %50 = load i32, ptr %7, align 8, !tbaa !129
  %51 = and i32 %50, 4095
  invoke void @_ZNK2cv3Mat9convertToERKNS_12_OutputArrayEidd(ptr noundef nonnull align 8 dereferenceable(96) %8, ptr noundef nonnull align 8 dereferenceable(24) %14, i32 noundef %51, double noundef 1.000000e+00, double noundef 0.000000e+00)
          to label %52 unwind label %55

52:                                               ; preds = %47
  call void @llvm.lifetime.end.p0(i64 24, ptr nonnull %14) #27
  br label %57

53:                                               ; preds = %30
  %54 = landingpad { ptr, i32 }
          cleanup
  call void @llvm.lifetime.end.p0(i64 24, ptr nonnull %13) #27
  call void @llvm.lifetime.end.p0(i64 24, ptr nonnull %12) #27
  call void @llvm.lifetime.end.p0(i64 24, ptr nonnull %11) #27
  br label %58

55:                                               ; preds = %47
  %56 = landingpad { ptr, i32 }
          cleanup
  call void @llvm.lifetime.end.p0(i64 24, ptr nonnull %14) #27
  br label %58

57:                                               ; preds = %52, %42
  call void @_ZN2cv3MatD1Ev(ptr noundef nonnull align 8 dereferenceable(96) %9) #27
  call void @llvm.lifetime.end.p0(i64 96, ptr nonnull %9) #27
  call void @_ZN2cv3MatD1Ev(ptr noundef nonnull align 8 dereferenceable(96) %8) #27
  call void @llvm.lifetime.end.p0(i64 96, ptr nonnull %8) #27
  call void @_ZN2cv3MatD1Ev(ptr noundef nonnull align 8 dereferenceable(96) %7) #27
  call void @llvm.lifetime.end.p0(i64 96, ptr nonnull %7) #27
  call void @_ZN2cv3MatD1Ev(ptr noundef nonnull align 8 dereferenceable(96) %6) #27
  call void @llvm.lifetime.end.p0(i64 96, ptr nonnull %6) #27
  ret void

58:                                               ; preds = %55, %53, %29
  %.pn22.pn = phi { ptr, i32 } [ %56, %55 ], [ %54, %53 ], [ %.pn, %29 ]
  call void @_ZN2cv3MatD1Ev(ptr noundef nonnull align 8 dereferenceable(96) %9) #27
  call void @llvm.lifetime.end.p0(i64 96, ptr nonnull %9) #27
  call void @_ZN2cv3MatD1Ev(ptr noundef nonnull align 8 dereferenceable(96) %8) #27
  br label %59

59:                                               ; preds = %58, %23
  %.pn22.pn.pn = phi { ptr, i32 } [ %.pn22.pn, %58 ], [ %24, %23 ]
  call void @llvm.lifetime.end.p0(i64 96, ptr nonnull %8) #27
  call void @_ZN2cv3MatD1Ev(ptr noundef nonnull align 8 dereferenceable(96) %7) #27
  br label %60

60:                                               ; preds = %59, %21
  %.pn22.pn.pn.pn = phi { ptr, i32 } [ %.pn22.pn.pn, %59 ], [ %22, %21 ]
  call void @llvm.lifetime.end.p0(i64 96, ptr nonnull %7) #27
  call void @_ZN2cv3MatD1Ev(ptr noundef nonnull align 8 dereferenceable(96) %6) #27
  call void @llvm.lifetime.end.p0(i64 96, ptr nonnull %6) #27
  resume { ptr, i32 } %.pn22.pn.pn.pn
}